target datalayout = "e-m:e-p270:32:32-p271:32:32-p272:64:64-i64:64-i128:128-f80:128-n8:16:32:64-S128"
target triple = "x86_64-pc-linux-gnu"

%struct.Curl_hash = type { ptr, ptr, ptr, ptr, i64, i64 }

; Function Attrs: nounwind uwtable
define hidden void @Curl_hash_init(ptr noundef %0, i64 noundef %1, ptr noundef %2, ptr noundef %3, ptr noundef %4) #0 {
  %6 = alloca ptr, align 8
  %7 = alloca i64, align 8
  %8 = alloca ptr, align 8
  %9 = alloca ptr, align 8
  %10 = alloca ptr, align 8
  store ptr %0, ptr %6, align 8, !tbaa !3
  store i64 %1, ptr %7, align 8, !tbaa !8
  store ptr %2, ptr %8, align 8, !tbaa !10
  store ptr %3, ptr %9, align 8, !tbaa !10
  store ptr %4, ptr %10, align 8, !tbaa !10
  br label %11

11:                                               ; preds = %5
  br label %12

12:                                               ; preds = %11
  br label %13

13:                                               ; preds = %12
  br label %14

14:                                               ; preds = %13
  br label %15

15:                                               ; preds = %14
  br label %16

16:                                               ; preds = %15
  br label %17

17:                                               ; preds = %16
  br label %18

18:                                               ; preds = %17
  br label %19

19:                                               ; preds = %18
  br label %20

20:                                               ; preds = %19
  %21 = load ptr, ptr %6, align 8, !tbaa !3
  %22 = getelementptr inbounds nuw %struct.Curl_hash, ptr %21, i32 0, i32 0
  store ptr null, ptr %22, align 8, !tbaa !11
  %23 = load ptr, ptr %8, align 8, !tbaa !10
  %24 = load ptr, ptr %6, align 8, !tbaa !3
  %25 = getelementptr inbounds nuw %struct.Curl_hash, ptr %24, i32 0, i32 1
  store ptr %23, ptr %25, align 8, !tbaa !14
  %26 = load ptr, ptr %9, align 8, !tbaa !10
  %27 = load ptr, ptr %6, align 8, !tbaa !3
  %28 = getelementptr inbounds nuw %struct.Curl_hash, ptr %27, i32 0, i32 2
  store ptr %26, ptr %28, align 8, !tbaa !15
  %29 = load ptr, ptr %10, align 8, !tbaa !10
  %30 = load ptr, ptr %6, align 8, !tbaa !3
  %31 = getelementptr inbounds nuw %struct.Curl_hash, ptr %30, i32 0, i32 3
  store ptr %29, ptr %31, align 8, !tbaa !16
  %32 = load ptr, ptr %6, align 8, !tbaa !3
  %33 = getelementptr inbounds nuw %struct.Curl_hash, ptr %32, i32 0, i32 5
  store i64 0, ptr %33, align 8, !tbaa !17
  %34 = load i64, ptr %7, align 8, !tbaa !8
  %35 = load ptr, ptr %6, align 8, !tbaa !3
  %36 = getelementptr inbounds nuw %struct.Curl_hash, ptr %35, i32 0, i32 4
  store i64 %34, ptr %36, align 8, !tbaa !18
  ret void
}