; Function Attrs: mustprogress nofree norecurse nosync nounwind willreturn memory(argmem: write) uwtable
define hidden void @Curl_hash_init(ptr noundef writeonly captures(none) initializes((0, 48)) %0, i64 noundef %1, ptr noundef %2, ptr noundef %3, ptr noundef %4) local_unnamed_addr #0 {
  store ptr null, ptr %0, align 8, !tbaa !3
  %6 = getelementptr inbounds nuw i8, ptr %0, i64 8
  store ptr %2, ptr %6, align 8, !tbaa !10
  %7 = getelementptr inbounds nuw i8, ptr %0, i64 16
  store ptr %3, ptr %7, align 8, !tbaa !11
  %8 = getelementptr inbounds nuw i8, ptr %0, i64 24
  store ptr %4, ptr %8, align 8, !tbaa !12
  %9 = getelementptr inbounds nuw i8, ptr %0, i64 40
  store i64 0, ptr %9, align 8, !tbaa !13
  %10 = getelementptr inbounds nuw i8, ptr %0, i64 32
  store i64 %1, ptr %10, align 8, !tbaa !14
  ret void
}